target datalayout = "e-m:e-p270:32:32-p271:32:32-p272:64:64-i64:64-i128:128-f80:128-n8:16:32:64-S128"
target triple = "x86_64-pc-linux-gnu"

@.str = private unnamed_addr constant [3 x i32] [i32 42, i32 63, i32 0], align 4

; Function Attrs: mustprogress uwtable
define internal noundef i32 @_ZL10mwcsicompcPKwS0_b(ptr noundef %0, ptr noundef %1, i1 noundef zeroext %2) #0 {
  %4 = alloca i32, align 4
  %5 = alloca ptr, align 8
  %6 = alloca ptr, align 8
  %7 = alloca i8, align 1
  store ptr %0, ptr %5, align 8, !tbaa !3
  store ptr %1, ptr %6, align 8, !tbaa !3
  %8 = zext i1 %2 to i8
  store i8 %8, ptr %7, align 1, !tbaa !10
  %9 = load i8, ptr %7, align 1, !tbaa !10, !range !14, !noundef !15
  %10 = trunc i8 %9 to i1
  br i1 %10, label %11, label %15

11:                                               ; preds = %3
  %12 = load ptr, ptr %5, align 8, !tbaa !3
  %13 = load ptr, ptr %6, align 8, !tbaa !3
  %14 = call i32 @wcscmp(ptr noundef %12, ptr noundef %13) #7
  store i32 %14, ptr %4, align 4
  br label %19

15:                                               ; preds = %3
  %16 = load ptr, ptr %5, align 8, !tbaa !3
  %17 = load ptr, ptr %6, align 8, !tbaa !3
  %18 = call noundef i32 @_Z9wcsicompcPKwS0_(ptr noundef %16, ptr noundef %17)
  store i32 %18, ptr %4, align 4
  br label %19

19:                                               ; preds = %15, %11
  %20 = load i32, ptr %4, align 4
  ret i32 %20
}

; Function Attrs: inlinehint mustprogress nounwind uwtable
define linkonce_odr noundef i32 @_Z9touppercwjb(i32 noundef %0, i1 noundef zeroext %1) #5 comdat {
  %3 = alloca i32, align 4
  %4 = alloca i32, align 4
  %5 = alloca i8, align 1
  store i32 %0, ptr %4, align 4, !tbaa !8
  %6 = zext i1 %1 to i8
  store i8 %6, ptr %5, align 1, !tbaa !10
  %7 = load i8, ptr %5, align 1, !tbaa !10, !range !14, !noundef !15
  %8 = trunc i8 %7 to i1
  br i1 %8, label %9, label %11

9:                                                ; preds = %2
  %10 = load i32, ptr %4, align 4, !tbaa !8
  store i32 %10, ptr %3, align 4
  br label %13

11:                                               ; preds = %2
  %12 = load i32, ptr %4, align 4, !tbaa !8
  store i32 %12, ptr %3, align 4
  br label %13

13:                                               ; preds = %11, %9
  %14 = load i32, ptr %3, align 4
  ret i32 %14
}

; Function Attrs: mustprogress uwtable
define internal noundef zeroext i1 @_ZL5matchPKwS0_b(ptr noundef %0, ptr noundef %1, i1 noundef zeroext %2) #0 {
  %4 = alloca i1, align 1
  %5 = alloca ptr, align 8
  %6 = alloca ptr, align 8
  %7 = alloca i8, align 1
  %8 = alloca i32, align 4
  %9 = alloca i32, align 4
  %10 = alloca i32, align 4
  %11 = alloca ptr, align 8
  store ptr %0, ptr %5, align 8, !tbaa !3
  store ptr %1, ptr %6, align 8, !tbaa !3
  %12 = zext i1 %2 to i8
  store i8 %12, ptr %7, align 1, !tbaa !10
  br label %13

13:                                               ; preds = %141, %3
  call void @llvm.lifetime.start.p0(i64 4, ptr %8) #6
  %14 = load ptr, ptr %6, align 8, !tbaa !3
  %15 = load i32, ptr %14, align 4, !tbaa !16
  %16 = load i8, ptr %7, align 1, !tbaa !10, !range !14, !noundef !15
  %17 = trunc i8 %16 to i1
  %18 = call noundef i32 @_Z9touppercwjb(i32 noundef %15, i1 noundef zeroext %17)
  store i32 %18, ptr %8, align 4, !tbaa !16
  call void @llvm.lifetime.start.p0(i64 4, ptr %9) #6
  %19 = load ptr, ptr %5, align 8, !tbaa !3
  %20 = getelementptr inbounds nuw i32, ptr %19, i32 1
  store ptr %20, ptr %5, align 8, !tbaa !3
  %21 = load i32, ptr %19, align 4, !tbaa !16
  %22 = load i8, ptr %7, align 1, !tbaa !10, !range !14, !noundef !15
  %23 = trunc i8 %22 to i1
  %24 = call noundef i32 @_Z9touppercwjb(i32 noundef %21, i1 noundef zeroext %23)
  store i32 %24, ptr %9, align 4, !tbaa !16
  %25 = load i32, ptr %9, align 4, !tbaa !16
  switch i32 %25, label %113 [
    i32 0, label %26
    i32 63, label %29
    i32 42, label %34
  ]

26:                                               ; preds = %13
  %27 = load i32, ptr %8, align 4, !tbaa !16
  %28 = icmp eq i32 %27, 0
  store i1 %28, ptr %4, align 1
  store i32 1, ptr %10, align 4
  br label %138

29:                                               ; preds = %13
  %30 = load i32, ptr %8, align 4, !tbaa !16
  %31 = icmp eq i32 %30, 0
  br i1 %31, label %32, label %33

32:                                               ; preds = %29
  store i1 false, ptr %4, align 1
  store i32 1, ptr %10, align 4
  br label %138

33:                                               ; preds = %29
  br label %137

34:                                               ; preds = %13
  %35 = load ptr, ptr %5, align 8, !tbaa !3
  %36 = load i32, ptr %35, align 4, !tbaa !16
  %37 = icmp eq i32 %36, 0
  br i1 %37, label %38, label %39

38:                                               ; preds = %34
  store i1 true, ptr %4, align 1
  store i32 1, ptr %10, align 4
  br label %138

39:                                               ; preds = %34
  %40 = load ptr, ptr %5, align 8, !tbaa !3
  %41 = load i32, ptr %40, align 4, !tbaa !16
  %42 = icmp eq i32 %41, 46
  br i1 %42, label %43, label %98

43:                                               ; preds = %39
  %44 = load ptr, ptr %5, align 8, !tbaa !3
  %45 = getelementptr inbounds i32, ptr %44, i64 1
  %46 = load i32, ptr %45, align 4, !tbaa !16
  %47 = icmp eq i32 %46, 42
  br i1 %47, label %48, label %54

48:                                               ; preds = %43
  %49 = load ptr, ptr %5, align 8, !tbaa !3
  %50 = getelementptr inbounds i32, ptr %49, i64 2
  %51 = load i32, ptr %50, align 4, !tbaa !16
  %52 = icmp eq i32 %51, 0
  br i1 %52, label %53, label %54

53:                                               ; preds = %48
  store i1 true, ptr %4, align 1
  store i32 1, ptr %10, align 4
  br label %138

54:                                               ; preds = %48, %43
  call void @llvm.lifetime.start.p0(i64 8, ptr %11) #6
  %55 = load ptr, ptr %6, align 8, !tbaa !3
  %56 = call ptr @wcschr(ptr noundef %55, i32 noundef signext 46) #7
  store ptr %56, ptr %11, align 8, !tbaa !3
  %57 = load ptr, ptr %5, align 8, !tbaa !3
  %58 = getelementptr inbounds i32, ptr %57, i64 1
  %59 = load i32, ptr %58, align 4, !tbaa !16
  %60 = icmp eq i32 %59, 0
  br i1 %60, label %61, label %71

61:                                               ; preds = %54
  %62 = load ptr, ptr %11, align 8, !tbaa !3
  %63 = icmp eq ptr %62, null
  br i1 %63, label %69, label %64

64:                                               ; preds = %61
  %65 = load ptr, ptr %11, align 8, !tbaa !3
  %66 = getelementptr inbounds i32, ptr %65, i64 1
  %67 = load i32, ptr %66, align 4, !tbaa !16
  %68 = icmp eq i32 %67, 0
  br label %69

69:                                               ; preds = %64, %61
  %70 = phi i1 [ true, %61 ], [ %68, %64 ]
  store i1 %70, ptr %4, align 1
  store i32 1, ptr %10, align 4
  br label %95

71:                                               ; preds = %54
  %72 = load ptr, ptr %11, align 8, !tbaa !3
  %73 = icmp ne ptr %72, null
  br i1 %73, label %74, label %94

74:                                               ; preds = %71
  %75 = load ptr, ptr %11, align 8, !tbaa !3
  store ptr %75, ptr %6, align 8, !tbaa !3
  %76 = load ptr, ptr %5, align 8, !tbaa !3
  %77 = call ptr @wcspbrk(ptr noundef %76, ptr noundef @.str) #7
  %78 = icmp eq ptr %77, null
  br i1 %78, label %79, label %93

79:                                               ; preds = %74
  %80 = load ptr, ptr %6, align 8, !tbaa !3
  %81 = getelementptr inbounds i32, ptr %80, i64 1
  %82 = call ptr @wcschr(ptr noundef %81, i32 noundef signext 46) #7
  %83 = icmp eq ptr %82, null
  br i1 %83, label %84, label %93

84:                                               ; preds = %79
  %85 = load ptr, ptr %5, align 8, !tbaa !3
  %86 = getelementptr inbounds i32, ptr %85, i64 1
  %87 = load ptr, ptr %6, align 8, !tbaa !3
  %88 = getelementptr inbounds i32, ptr %87, i64 1
  %89 = load i8, ptr %7, align 1, !tbaa !10, !range !14, !noundef !15
  %90 = trunc i8 %89 to i1
  %91 = call noundef i32 @_ZL10mwcsicompcPKwS0_b(ptr noundef %86, ptr noundef %88, i1 noundef zeroext %90)
  %92 = icmp eq i32 %91, 0
  store i1 %92, ptr %4, align 1
  store i32 1, ptr %10, align 4
  br label %95

93:                                               ; preds = %79, %74
  br label %94

94:                                               ; preds = %93, %71
  store i32 0, ptr %10, align 4
  br label %95

95:                                               ; preds = %94, %84, %69
  call void @llvm.lifetime.end.p0(i64 8, ptr %11) #6
  %96 = load i32, ptr %10, align 4
  switch i32 %96, label %138 [
    i32 0, label %97
  ]

97:                                               ; preds = %95
  br label %98

98:                                               ; preds = %97, %39
  br label %99

99:                                               ; preds = %111, %98
  %100 = load ptr, ptr %6, align 8, !tbaa !3
  %101 = load i32, ptr %100, align 4, !tbaa !16
  %102 = icmp ne i32 %101, 0
  br i1 %102, label %103, label %112

103:                                              ; preds = %99
  %104 = load ptr, ptr %5, align 8, !tbaa !3
  %105 = load ptr, ptr %6, align 8, !tbaa !3
  %106 = getelementptr inbounds nuw i32, ptr %105, i32 1
  store ptr %106, ptr %6, align 8, !tbaa !3
  %107 = load i8, ptr %7, align 1, !tbaa !10, !range !14, !noundef !15
  %108 = trunc i8 %107 to i1
  %109 = call noundef zeroext i1 @_ZL5matchPKwS0_b(ptr noundef %104, ptr noundef %105, i1 noundef zeroext %108)
  br i1 %109, label %110, label %111

110:                                              ; preds = %103
  store i1 true, ptr %4, align 1
  store i32 1, ptr %10, align 4
  br label %138

111:                                              ; preds = %103
  br label %99, !llvm.loop !18

112:                                              ; preds = %99
  store i1 false, ptr %4, align 1
  store i32 1, ptr %10, align 4
  br label %138

113:                                              ; preds = %13
  %114 = load i32, ptr %9, align 4, !tbaa !16
  %115 = load i32, ptr %8, align 4, !tbaa !16
  %116 = icmp ne i32 %114, %115
  br i1 %116, label %117, label %136

117:                                              ; preds = %113
  %118 = load i32, ptr %9, align 4, !tbaa !16
  %119 = icmp eq i32 %118, 46
  br i1 %119, label %120, label %135

120:                                              ; preds = %117
  %121 = load i32, ptr %8, align 4, !tbaa !16
  %122 = icmp eq i32 %121, 0
  br i1 %122, label %129, label %123

123:                                              ; preds = %120
  %124 = load i32, ptr %8, align 4, !tbaa !16
  %125 = icmp eq i32 %124, 92
  br i1 %125, label %129, label %126

126:                                              ; preds = %123
  %127 = load i32, ptr %8, align 4, !tbaa !16
  %128 = icmp eq i32 %127, 46
  br i1 %128, label %129, label %135

129:                                              ; preds = %126, %123, %120
  %130 = load ptr, ptr %5, align 8, !tbaa !3
  %131 = load ptr, ptr %6, align 8, !tbaa !3
  %132 = load i8, ptr %7, align 1, !tbaa !10, !range !14, !noundef !15
  %133 = trunc i8 %132 to i1
  %134 = call noundef zeroext i1 @_ZL5matchPKwS0_b(ptr noundef %130, ptr noundef %131, i1 noundef zeroext %133)
  store i1 %134, ptr %4, align 1
  store i32 1, ptr %10, align 4
  br label %138

135:                                              ; preds = %126, %117
  store i1 false, ptr %4, align 1
  store i32 1, ptr %10, align 4
  br label %138

136:                                              ; preds = %113
  br label %137

137:                                              ; preds = %136, %33
  store i32 0, ptr %10, align 4
  br label %138

138:                                              ; preds = %137, %135, %129, %112, %110, %95, %53, %38, %32, %26
  call void @llvm.lifetime.end.p0(i64 4, ptr %9) #6
  call void @llvm.lifetime.end.p0(i64 4, ptr %8) #6
  %139 = load i32, ptr %10, align 4
  switch i32 %139, label %146 [
    i32 0, label %140
    i32 1, label %144
  ]

140:                                              ; preds = %138
  br label %141

141:                                              ; preds = %140
  %142 = load ptr, ptr %6, align 8, !tbaa !3
  %143 = getelementptr inbounds nuw i32, ptr %142, i32 1
  store ptr %143, ptr %6, align 8, !tbaa !3
  br label %13, !llvm.loop !20

144:                                              ; preds = %138
  %145 = load i1, ptr %4, align 1
  ret i1 %145

146:                                              ; preds = %138
  unreachable
}