; Function Attrs: mustprogress uwtable
define internal fastcc noundef zeroext i1 @_ZL5matchPKwS0_b(ptr noundef %0, ptr noundef %1, i1 noundef zeroext %2) unnamed_addr #0 {
  br label %tailrecurse.outer

tailrecurse.outer:                                ; preds = %3, %.loopexit144
  %.044.ph = phi ptr [ %1, %3 ], [ %54, %.loopexit144 ]
  %.043.ph = phi ptr [ %0, %3 ], [ %5, %.loopexit144 ]
  %4 = load i32, ptr %.044.ph, align 4, !tbaa !3
  br label %tailrecurse

tailrecurse:                                      ; preds = %tailrecurse.backedge, %tailrecurse.outer
  %.043 = phi ptr [ %.043.ph, %tailrecurse.outer ], [ %5, %tailrecurse.backedge ]
  %5 = getelementptr inbounds nuw i8, ptr %.043, i64 4
  %6 = load i32, ptr %.043, align 4, !tbaa !3
  switch i32 %6, label %50 [
    i32 0, label %7
    i32 63, label %9
    i32 42, label %11
  ]

7:                                                ; preds = %tailrecurse
  %8 = icmp eq i32 %4, 0
  br label %.loopexit

9:                                                ; preds = %tailrecurse
  %10 = icmp eq i32 %4, 0
  br i1 %10, label %.loopexit, label %.loopexit144

11:                                               ; preds = %tailrecurse
  %12 = load i32, ptr %5, align 4, !tbaa !3
  switch i32 %12, label %.thread54.preheader [
    i32 0, label %.loopexit
    i32 46, label %13
  ]

.thread54.preheader:                              ; preds = %31, %36, %33, %11
  %.5.ph = phi ptr [ %32, %36 ], [ %32, %33 ], [ %.044.ph, %31 ], [ %.044.ph, %11 ]
  br label %.thread54

13:                                               ; preds = %11
  %14 = getelementptr inbounds nuw i8, ptr %.043, i64 8
  %15 = load i32, ptr %14, align 4, !tbaa !3
  %16 = icmp eq i32 %15, 42
  br i1 %16, label %17, label %22

17:                                               ; preds = %13
  %18 = getelementptr inbounds nuw i8, ptr %.043, i64 12
  %19 = load i32, ptr %18, align 4, !tbaa !3
  %20 = icmp eq i32 %19, 0
  br i1 %20, label %.loopexit, label %.thread

.thread:                                          ; preds = %17
  %21 = tail call ptr @wcschr(ptr noundef nonnull %.044.ph, i32 noundef signext 46) #5
  br label %31

22:                                               ; preds = %13
  %23 = tail call ptr @wcschr(ptr noundef nonnull %.044.ph, i32 noundef signext 46) #5
  %24 = icmp eq i32 %15, 0
  br i1 %24, label %25, label %31

25:                                               ; preds = %22
  %26 = icmp eq ptr %23, null
  br i1 %26, label %.loopexit, label %27

27:                                               ; preds = %25
  %28 = getelementptr inbounds nuw i8, ptr %23, i64 4
  %29 = load i32, ptr %28, align 4, !tbaa !3
  %30 = icmp eq i32 %29, 0
  br label %.loopexit

31:                                               ; preds = %.thread, %22
  %32 = phi ptr [ %21, %.thread ], [ %23, %22 ]
  %.not = icmp eq ptr %32, null
  br i1 %.not, label %.thread54.preheader, label %33

33:                                               ; preds = %31
  %34 = tail call ptr @wcspbrk(ptr noundef nonnull %5, ptr noundef nonnull @.str) #5
  %35 = icmp eq ptr %34, null
  br i1 %35, label %36, label %.thread54.preheader

36:                                               ; preds = %33
  %37 = getelementptr inbounds nuw i8, ptr %32, i64 4
  %38 = tail call ptr @wcschr(ptr noundef nonnull %37, i32 noundef signext 46) #5
  %39 = icmp eq ptr %38, null
  br i1 %39, label %40, label %.thread54.preheader

40:                                               ; preds = %36
  br i1 %2, label %41, label %43

41:                                               ; preds = %40
  %42 = tail call i32 @wcscmp(ptr noundef nonnull %14, ptr noundef nonnull %37) #5
  br label %_ZL10mwcsicompcPKwS0_b.exit

43:                                               ; preds = %40
  %44 = tail call noundef i32 @_Z9wcsicompcPKwS0_(ptr noundef nonnull %14, ptr noundef nonnull %37)
  br label %_ZL10mwcsicompcPKwS0_b.exit

_ZL10mwcsicompcPKwS0_b.exit:                      ; preds = %41, %43
  %.0.i = phi i32 [ %42, %41 ], [ %44, %43 ]
  %45 = icmp eq i32 %.0.i, 0
  br label %.loopexit

.thread54:                                        ; preds = %.thread54.preheader, %47
  %.5 = phi ptr [ %48, %47 ], [ %.5.ph, %.thread54.preheader ]
  %46 = load i32, ptr %.5, align 4, !tbaa !3
  %.not52.not.not = icmp ne i32 %46, 0
  br i1 %.not52.not.not, label %47, label %.loopexit

47:                                               ; preds = %.thread54
  %48 = getelementptr inbounds nuw i8, ptr %.5, i64 4
  %49 = tail call fastcc noundef zeroext i1 @_ZL5matchPKwS0_b(ptr noundef nonnull %5, ptr noundef nonnull %.5, i1 noundef zeroext %2)
  br i1 %49, label %.loopexit, label %.thread54, !llvm.loop !7

50:                                               ; preds = %tailrecurse
  %.not53 = icmp eq i32 %6, %4
  br i1 %.not53, label %.loopexit144, label %51

51:                                               ; preds = %50
  %52 = icmp eq i32 %6, 46
  br i1 %52, label %53, label %.loopexit

53:                                               ; preds = %51
  switch i32 %4, label %.loopexit [
    i32 92, label %tailrecurse.backedge
    i32 46, label %tailrecurse.backedge
    i32 0, label %tailrecurse.backedge
  ]

tailrecurse.backedge:                             ; preds = %53, %53, %53
  br label %tailrecurse

.loopexit144:                                     ; preds = %50, %9
  %54 = getelementptr inbounds nuw i8, ptr %.044.ph, i64 4
  br label %tailrecurse.outer, !llvm.loop !9

.loopexit:                                        ; preds = %53, %51, %9, %47, %.thread54, %7, %11, %17, %25, %27, %_ZL10mwcsicompcPKwS0_b.exit
  %.1.ph = phi i1 [ %30, %27 ], [ true, %25 ], [ %45, %_ZL10mwcsicompcPKwS0_b.exit ], [ true, %17 ], [ true, %11 ], [ %8, %7 ], [ %.not52.not.not, %.thread54 ], [ %.not52.not.not, %47 ], [ false, %9 ], [ false, %51 ], [ false, %53 ]
  ret i1 %.1.ph
}